target datalayout = "e-m:e-p270:32:32-p271:32:32-p272:64:64-i64:64-i128:128-f80:128-n8:16:32:64-S128"
target triple = "x86_64-pc-linux-gnu"

; Function Attrs: nounwind uwtable
define ptr @evmc_get_instruction_names_table(i32 noundef %0) #0 {
  %2 = alloca ptr, align 8
  %3 = alloca i32, align 4
  store i32 %0, ptr %3, align 4, !tbaa !3
  %4 = load i32, ptr %3, align 4, !tbaa !3
  switch i32 %4, label %16 [
    i32 15, label %5
    i32 14, label %5
    i32 13, label %6
    i32 12, label %7
    i32 11, label %8
    i32 10, label %9
    i32 9, label %10
    i32 8, label %11
    i32 7, label %11
    i32 6, label %12
    i32 5, label %12
    i32 4, label %13
    i32 3, label %14
    i32 2, label %14
    i32 1, label %14
    i32 0, label %15
  ]

5:                                                ; preds = %1, %1
  store ptr @osaka_names, ptr %2, align 8
  br label %17

6:                                                ; preds = %1
  store ptr @prague_names, ptr %2, align 8
  br label %17

7:                                                ; preds = %1
  store ptr @cancun_names, ptr %2, align 8
  br label %17

8:                                                ; preds = %1
  store ptr @shanghai_names, ptr %2, align 8
  br label %17

9:                                                ; preds = %1
  store ptr @paris_names, ptr %2, align 8
  br label %17

10:                                               ; preds = %1
  store ptr @london_names, ptr %2, align 8
  br label %17

11:                                               ; preds = %1, %1
  store ptr @istanbul_names, ptr %2, align 8
  br label %17

12:                                               ; preds = %1, %1
  store ptr @constantinople_names, ptr %2, align 8
  br label %17

13:                                               ; preds = %1
  store ptr @byzantium_names, ptr %2, align 8
  br label %17

14:                                               ; preds = %1, %1, %1
  store ptr @homestead_names, ptr %2, align 8
  br label %17

15:                                               ; preds = %1
  store ptr @frontier_names, ptr %2, align 8
  br label %17

16:                                               ; preds = %1
  store ptr null, ptr %2, align 8
  br label %17

17:                                               ; preds = %16, %15, %14, %13, %12, %11, %10, %9, %8, %7, %6, %5
  %18 = load ptr, ptr %2, align 8
  ret ptr %18
}